; Function Attrs: mustprogress uwtable
define noundef i32 @_ZN4pkpy15CodeEmitContext8emit_intEli(ptr noundef nonnull align 8 dereferenceable(232) %0, i64 noundef %1, i32 noundef %2) local_unnamed_addr #5 align 2 {
  %4 = alloca i64, align 8
  %5 = icmp ult i64 %1, 1024
  br i1 %5, label %6, label %10

6:                                                ; preds = %3
  %.tr = trunc nuw i64 %1 to i16
  %7 = shl nuw nsw i16 %.tr, 2
  %8 = or disjoint i16 %7, 2
  %9 = tail call noundef i32 @_ZN4pkpy15CodeEmitContext5emit_ENS_6OpcodeEtib(ptr noundef nonnull align 8 dereferenceable(232) %0, i8 noundef zeroext 10, i16 noundef zeroext %8, i32 noundef %2, i1 noundef zeroext false)
  br label %22

10:                                               ; preds = %3
  %11 = load ptr, ptr %0, align 8
  call void @llvm.lifetime.start.p0(i64 8, ptr nonnull %4)
  store i64 %1, ptr %4, align 8
  %or.cond.i = icmp ult i64 %1, 1152921504606846976
  br i1 %or.cond.i, label %12, label %16

12:                                               ; preds = %10
  %13 = shl nuw nsw i64 %1, 2
  %14 = or disjoint i64 %13, 2
  %15 = inttoptr i64 %14 to ptr
  br label %_ZN4pkpy6py_varIRlEEPNS_8PyObjectEPNS_2VMEOT_.exit

16:                                               ; preds = %10
  %17 = getelementptr inbounds nuw i8, ptr %11, i64 16
  %18 = call noundef ptr @_ZN4pkpy11ManagedHeap5gcnewIlJRlEEEPNS_8PyObjectENS_4TypeEDpOT0_(ptr noundef nonnull align 8 dereferenceable(84) %17, i16 2, ptr noundef nonnull align 8 dereferenceable(8) %4)
  br label %_ZN4pkpy6py_varIRlEEPNS_8PyObjectEPNS_2VMEOT_.exit

_ZN4pkpy6py_varIRlEEPNS_8PyObjectEPNS_2VMEOT_.exit: ; preds = %12, %16
  %.0.i = phi ptr [ %15, %12 ], [ %18, %16 ]
  call void @llvm.lifetime.end.p0(i64 8, ptr nonnull %4)
  %19 = call noundef i32 @_ZN4pkpy15CodeEmitContext9add_constEPNS_8PyObjectE(ptr noundef nonnull align 8 dereferenceable(232) %0, ptr noundef %.0.i)
  %20 = trunc i32 %19 to i16
  %21 = call noundef i32 @_ZN4pkpy15CodeEmitContext5emit_ENS_6OpcodeEtib(ptr noundef nonnull align 8 dereferenceable(232) %0, i8 noundef zeroext 6, i16 noundef zeroext %20, i32 noundef %2, i1 noundef zeroext false)
  br label %22

22:                                               ; preds = %_ZN4pkpy6py_varIRlEEPNS_8PyObjectEPNS_2VMEOT_.exit, %6
  %.0 = phi i32 [ %9, %6 ], [ %21, %_ZN4pkpy6py_varIRlEEPNS_8PyObjectEPNS_2VMEOT_.exit ]
  ret i32 %.0
}